ccopy_reg
_reconstructor
p0
(cmakeModels
TagChunker
p1
c__builtin__
object
p2
Ntp3
Rp4
(dp5
S'tagger'
p6
g0
(cnltk.tag.sequential
BigramTagger
p7
g2
Ntp8
Rp9
(dp10
S'_taggers'
p11
(lp12
g9
ag0
(cnltk.tag.sequential
UnigramTagger
p13
g2
Ntp14
Rp15
(dp16
g11
(lp17
g15
asS'_n'
p18
I1
sS'_context_to_tag'
p19
(dp20
VMD
p21
VO
p22
sVVB
p23
g22
sVVBG
p24
g22
sVJJ
p25
VB-NP
p26
sVNN
p27
VI-NP
p28
sVPOS
p29
VI-NP
p30
sVVBP
p31
g22
sVPRP
p32
g22
sVRB
p33
g22
sVIN
p34
g22
sVWRB
p35
g22
sVDT
p36
g22
sVNNS
p37
VI-NP
p38
sVNNP
p39
g22
ssbasg18
I2
sg19
(dp40
((g22
tp41
g27
tp42
VB-NP
p43
s((tVNNP
p44
tp45
g22
s((g22
tp46
VNNS
p47
tp48
VB-NP
p49
s((tVNNS
p50
tp51
VB-NP
p52
s((tVNN
p53
tp54
g22
s((VI-NP
p55
tp56
VNNP
p57
tp58
VI-NP
p59
s((VB-NP
p60
tp61
VIN
p62
tp63
VI-NP
p64
s((VI-NP
p65
tp66
VDT
p67
tp68
VI-NP
p69
s((tVVBG
p70
tp71
g22
s((VB-NP
p72
tp73
VJJ
p74
tp75
VI-NP
p76
s((VB-NP
p77
tp78
VNNP
p79
tp80
g55
s((VI-NP
p81
tp82
VIN
p83
tp84
g65
s((VB-NP
p85
tp86
VVBG
p87
tp88
VI-NP
p89
s((g22
tp90
VDT
p91
tp92
g22
ssbsb.