ccopy_reg
_reconstructor
p1
(cnltk_trainer.chunking.chunkers
TagChunker
p2
c__builtin__
object
p3
NtRp4
(dp5
S'tagger'
p6
g1
(cnltk.tag.sequential
BigramTagger
p7
g3
NtRp8
(dp9
S'_taggers'
p10
(lp11
g8
ag1
(cnltk.tag.sequential
UnigramTagger
p12
g3
NtRp13
(dp14
g10
(lp15
g13
asS'_n'
p16
I1
sS'_context_to_tag'
p17
(dp18
VMD
p19
VO
sVVB
p20
VO
sVVBG
p21
VO
sVJJ
p22
VB-NP
p23
sVNN
p24
VI-NP
p25
sVPOS
p26
VI-NP
p27
sVVBP
p28
VO
sVPRP
p29
VO
sVRB
p30
VO
sVIN
p31
VO
sVWRB
p32
VO
sVDT
p33
VO
sVNNS
p34
VI-NP
p35
sVNNP
p36
VO
ssbasg16
I2
sg17
(dp37
((VO
tg24
tp38
VB-NP
p39
s((tVNNP
tp40
VO
s((VO
tVNNS
tp41
VB-NP
p42
s((tVNNS
tp43
VB-NP
p44
s((tVNN
tp45
VO
s((VI-NP
p46
tVNNP
tp47
VI-NP
p48
s((VB-NP
tVIN
tp49
VI-NP
p50
s((VI-NP
p51
tVDT
tp52
VI-NP
p53
s((tVVBG
tp54
VO
s((VB-NP
tVJJ
tp55
VI-NP
p56
s((VB-NP
tVNNP
tp57
g46
s((VI-NP
tVIN
tp58
g51
s((VB-NP
tVVBG
tp59
VI-NP
p60
s((VO
tVDT
tp61
VO
ssbsb.